; Function Attrs: nounwind uwtable
define ptr @l_Lean_Elab_LibrarySearch_evalApply___lambda__1___boxed(ptr noundef %0, ptr noundef %1, ptr noundef %2, ptr noundef %3, ptr noundef %4, ptr noundef %5, ptr noundef %6, ptr noundef %7, ptr noundef %8, ptr noundef %9, ptr noundef %10) #0 {
  %12 = getelementptr inbounds nuw i8, ptr %8, i64 48
  %13 = load ptr, ptr %12, align 8, !tbaa !9
  %14 = ptrtoint ptr %13 to i64
  %15 = and i64 %14, 1
  %.not.i13 = icmp eq i64 %15, 0
  br i1 %.not.i13, label %16, label %l_Lean_Elab_LibrarySearch_evalApply___lambda__1.exit

16:                                               ; preds = %11
  %.val.i.i = load i32, ptr %13, align 4, !tbaa !4
  %17 = icmp sgt i32 %.val.i.i, 0
  br i1 %17, label %18, label %20, !prof !11

18:                                               ; preds = %16
  %19 = add nuw i32 %.val.i.i, 1
  store i32 %19, ptr %13, align 4, !tbaa !4
  br label %l_Lean_Elab_LibrarySearch_evalApply___lambda__1.exit

20:                                               ; preds = %16
  %.not.i.i = icmp eq i32 %.val.i.i, 0
  br i1 %.not.i.i, label %l_Lean_Elab_LibrarySearch_evalApply___lambda__1.exit, label %21

21:                                               ; preds = %20
  tail call void @lean_inc_ref_cold(ptr noundef nonnull %13) #5
  br label %l_Lean_Elab_LibrarySearch_evalApply___lambda__1.exit

l_Lean_Elab_LibrarySearch_evalApply___lambda__1.exit: ; preds = %11, %18, %20, %21
  %22 = tail call ptr @l_Lean_Elab_LibrarySearch_exact_x3f(ptr noundef %13, ptr noundef %1, i8 noundef zeroext 0, ptr noundef %2, ptr noundef %3, ptr noundef %4, ptr noundef %5, ptr noundef %6, ptr noundef %7, ptr noundef nonnull %8, ptr noundef %9, ptr noundef %10)
  %23 = ptrtoint ptr %0 to i64
  %24 = and i64 %23, 1
  %.not = icmp eq i64 %24, 0
  br i1 %.not, label %25, label %lean_dec.exit

25:                                               ; preds = %l_Lean_Elab_LibrarySearch_evalApply___lambda__1.exit
  %26 = load i32, ptr %0, align 4, !tbaa !4
  %27 = icmp sgt i32 %26, 1
  br i1 %27, label %28, label %30, !prof !11

28:                                               ; preds = %25
  %29 = add nsw i32 %26, -1
  store i32 %29, ptr %0, align 4, !tbaa !4
  br label %lean_dec.exit

30:                                               ; preds = %25
  %.not.i = icmp eq i32 %26, 0
  br i1 %.not.i, label %lean_dec.exit, label %31

31:                                               ; preds = %30
  tail call void @lean_dec_ref_cold(ptr noundef nonnull %0) #5
  br label %lean_dec.exit

lean_dec.exit:                                    ; preds = %31, %30, %28, %l_Lean_Elab_LibrarySearch_evalApply___lambda__1.exit
  ret ptr %22
}